target datalayout = "e-m:e-p270:32:32-p271:32:32-p272:64:64-i64:64-i128:128-f80:128-n8:16:32:64-S128"
target triple = "x86_64-pc-linux-gnu"

; Function Attrs: mustprogress nounwind uwtable
define linkonce_odr noundef i32 @_ZN2mu9ParserInt5RoundEd(double noundef %0) #0 comdat align 2 {
  %2 = alloca double, align 8
  store double %0, ptr %2, align 8
  %3 = load double, ptr %2, align 8
  %4 = load double, ptr %2, align 8
  %5 = fcmp oge double %4, 0.000000e+00
  %6 = select i1 %5, double 5.000000e-01, double -5.000000e-01
  %7 = fadd double %3, %6
  %8 = fptosi double %7 to i32
  ret i32 %8
}

; Function Attrs: mustprogress nounwind uwtable
define noundef double @_ZN2mu9ParserInt3NotEd(double noundef %0) #0 align 2 {
  %2 = alloca double, align 8
  store double %0, ptr %2, align 8
  %3 = load double, ptr %2, align 8
  %4 = call noundef i32 @_ZN2mu9ParserInt5RoundEd(double noundef %3)
  %5 = icmp ne i32 %4, 0
  %6 = xor i1 %5, true
  %7 = uitofp i1 %6 to double
  ret double %7
}